(dp0
S'load'
p1
(dp2
S'node069'
p3
(dp4
S'phases'
p5
S'"AN"'
p6
sS'nominal_voltage'
p7
S'2401.8'
p8
sS'name'
p9
g3
sS'constant_power_A'
p10
S'40000+20000j'
p11
ssS'node109'
p12
(dp13
S'phases'
p14
S'"AN"'
p15
sS'nominal_voltage'
p16
S'2401.8'
p17
sS'name'
p18
g12
sS'constant_power_A'
p19
S'40000+20000j'
p20
ssS'node046'
p21
(dp22
S'phases'
p23
S'"AN"'
p24
sS'nominal_voltage'
p25
S'2401.8'
p26
sS'name'
p27
g21
sS'constant_power_A'
p28
S'20000+10000j'
p29
ssS'node020'
p30
(dp31
S'constant_current_A'
p32
S'9.615+4.808j'
p33
sS'phases'
p34
S'"AN"'
p35
sS'nominal_voltage'
p36
S'2401.8'
p37
sS'name'
p38
g30
ssS'node090'
p39
(dp40
S'phases'
p41
S'"BN"'
p42
sS'constant_current_B'
p43
S'9.615+4.808j'
p44
sS'nominal_voltage'
p45
S'2401.8'
p46
sS'name'
p47
g39
ssS'node004'
p48
(dp49
S'nominal_voltage'
p50
S'2401.8'
p51
sS'phases'
p52
S'"CN"'
p53
sS'constant_power_C'
p54
S'40000+20000j'
p55
sS'name'
p56
g48
ssS'node092'
p57
(dp58
S'nominal_voltage'
p59
S'2401.8'
p60
sS'phases'
p61
S'"CN"'
p62
sS'constant_power_C'
p63
S'40000+20000j'
p64
sS'name'
p65
g57
ssS'node076'
p66
(dp67
S'phases'
p68
S'"ABCD"'
p69
sS'name'
p70
g66
sS'constant_current_A'
p71
S'25.240+19.231j'
p72
sS'constant_current_C'
p73
S'16.827+12.019j'
p74
sS'constant_current_B'
p75
S'16.327+12.019j'
p76
sS'nominal_voltage'
p77
S'2401.8'
p78
ssS'node094'
p79
(dp80
S'phases'
p81
S'"AN"'
p82
sS'nominal_voltage'
p83
S'2401.8'
p84
sS'name'
p85
g79
sS'constant_power_A'
p86
S'40000+20000j'
p87
ssS'node095'
p88
(dp89
S'phases'
p90
S'"ABCN"'
p91
sS'nominal_voltage'
p92
S'2401.8'
p93
sS'name'
p94
g88
sS'constant_power_B'
p95
S'20000+10000j'
p96
ssS'node096'
p97
(dp98
S'phases'
p99
S'"BN"'
p100
sS'nominal_voltage'
p101
S'2401.8'
p102
sS'name'
p103
g97
sS'constant_power_B'
p104
S'20000+10000j'
p105
ssS'node024'
p106
(dp107
S'nominal_voltage'
p108
S'2401.8'
p109
sS'phases'
p110
S'"CN"'
p111
sS'constant_power_C'
p112
S'40000+20000j'
p113
sS'name'
p114
g106
ssS'node098'
p115
(dp116
S'phases'
p117
S'"ABCN"'
p118
sS'nominal_voltage'
p119
S'2401.8'
p120
sS'name'
p121
g115
sS'constant_power_A'
p122
S'40000+20000j'
p123
ssS'node099'
p124
(dp125
S'phases'
p126
S'"ABCN"'
p127
sS'nominal_voltage'
p128
S'2401.8'
p129
sS'name'
p130
g124
sS'constant_power_B'
p131
S'40000+20000j'
p132
ssS'node032'
p133
(dp134
S'nominal_voltage'
p135
S'2401.8'
p136
sS'phases'
p137
S'"CN"'
p138
sS'constant_power_C'
p139
S'20000+10000j'
p140
sS'name'
p141
g133
ssS'node114'
p142
(dp143
S'phases'
p144
S'"AN"'
p145
sS'nominal_voltage'
p146
S'2401.8'
p147
sS'name'
p148
g142
sS'constant_power_A'
p149
S'20000+10000j'
p150
ssS'node030'
p151
(dp152
S'nominal_voltage'
p153
S'2401.8'
p154
sS'phases'
p155
S'"ABCN"'
p156
sS'constant_power_C'
p157
S'40000+20000j'
p158
sS'name'
p159
g151
ssS'node031'
p160
(dp161
S'nominal_voltage'
p162
S'2401.8'
p163
sS'phases'
p164
S'"CN"'
p165
sS'constant_power_C'
p166
S'20000+10000j'
p167
sS'name'
p168
g160
ssS'node111'
p169
(dp170
S'phases'
p171
S'"AN"'
p172
sS'nominal_voltage'
p173
S'2401.8'
p174
sS'name'
p175
g169
sS'constant_power_A'
p176
S'20000+10000j'
p177
ssS'node037'
p178
(dp179
S'phases'
p180
S'"AN"'
p181
sS'nominal_voltage'
p182
S'2401.8'
p183
sS'name'
p184
g178
sS'constant_impedance_A'
p185
S'432.640+865.280j'
p186
ssS'node034'
p187
(dp188
S'phases'
p189
S'"CN"'
p190
sS'nominal_voltage'
p191
S'2401.8'
p192
sS'name'
p193
g187
sS'constant_impedance_C'
p194
S'432.640+865.280j'
p195
ssS'node112'
p196
(dp197
S'constant_current_A'
p198
S'4.808+2.404j'
p199
sS'phases'
p200
S'"AN"'
p201
sS'nominal_voltage'
p202
S'2401.8'
p203
sS'name'
p204
g196
ssS'node038'
p205
(dp206
S'phases'
p207
S'"BN"'
p208
sS'constant_current_B'
p209
S'4.808+2.404j'
p210
sS'nominal_voltage'
p211
S'2401.8'
p212
sS'name'
p213
g205
ssS'node039'
p214
(dp215
S'phases'
p216
S'"BN"'
p217
sS'nominal_voltage'
p218
S'2401.8'
p219
sS'name'
p220
g214
sS'constant_power_B'
p221
S'20000+10000j'
p222
ssS'node063'
p223
(dp224
S'phases'
p225
S'"ABCN"'
p226
sS'nominal_voltage'
p227
S'2401.8'
p228
sS'name'
p229
g223
sS'constant_power_A'
p230
S'40000+20000j'
p231
ssS'node048'
p232
(dp233
S'phases'
p234
S'"ABCN"'
p235
sS'name'
p236
g232
sS'constant_impedance_B'
p237
S'247.233+346.112j'
p238
sS'constant_impedance_C'
p239
S'247.233+346.112j'
p240
sS'nominal_voltage'
p241
S'2401.8'
p242
sS'constant_impedance_A'
p243
S'247.233+346.112j'
p244
ssS'node055'
p245
(dp246
S'phases'
p247
S'"ABCN"'
p248
sS'nominal_voltage'
p249
S'2401.8'
p250
sS'name'
p251
g245
sS'constant_impedance_A'
p252
S'865.280+1730.560j'
p253
ssS'node056'
p254
(dp255
S'phases'
p256
S'"ABCN"'
p257
sS'nominal_voltage'
p258
S'2401.8'
p259
sS'name'
p260
g254
sS'constant_power_B'
p261
S'20000+10000j'
p262
ssS'node050'
p263
(dp264
S'nominal_voltage'
p265
S'2401.8'
p266
sS'phases'
p267
S'"ABCN"'
p268
sS'constant_power_C'
p269
S'40000+20000j'
p270
sS'name'
p271
g263
ssS'node051'
p272
(dp273
S'phases'
p274
S'"ABCN"'
p275
sS'nominal_voltage'
p276
S'2401.8'
p277
sS'name'
p278
g272
sS'constant_power_A'
p279
S'20000+10000j'
p280
ssS'node052'
p281
(dp282
S'phases'
p283
S'"ABCN"'
p284
sS'nominal_voltage'
p285
S'2401.8'
p286
sS'name'
p287
g281
sS'constant_power_A'
p288
S'40000+20000j'
p289
ssS'node053'
p290
(dp291
S'phases'
p292
S'"ABCN"'
p293
sS'nominal_voltage'
p294
S'2401.8'
p295
sS'name'
p296
g290
sS'constant_power_A'
p297
S'40000+20000j'
p298
ssS'node010'
p299
(dp300
S'constant_current_A'
p301
S'4.808+2.404j'
p302
sS'phases'
p303
S'"AN"'
p304
sS'nominal_voltage'
p305
S'2401.8'
p306
sS'name'
p307
g299
ssS'node077'
p308
(dp309
S'phases'
p310
S'"ABCN"'
p311
sS'nominal_voltage'
p312
S'2401.8'
p313
sS'name'
p314
g308
sS'constant_power_B'
p315
S'40000+20000j'
p316
ssS'node012'
p317
(dp318
S'phases'
p319
S'"BN"'
p320
sS'nominal_voltage'
p321
S'2401.8'
p322
sS'name'
p323
g317
sS'constant_power_B'
p324
S'20000+10000j'
p325
ssS'node075'
p326
(dp327
S'nominal_voltage'
p328
S'2401.8'
p329
sS'phases'
p330
S'"CN"'
p331
sS'constant_power_C'
p332
S'40000+20000j'
p333
sS'name'
p334
g326
ssS'node058'
p335
(dp336
S'phases'
p337
S'"BN"'
p338
sS'constant_current_B'
p339
S'4.808+2.404j'
p340
sS'nominal_voltage'
p341
S'2401.8'
p342
sS'name'
p343
g335
ssS'node059'
p344
(dp345
S'phases'
p346
S'"BN"'
p347
sS'nominal_voltage'
p348
S'2401.8'
p349
sS'name'
p350
g344
sS'constant_power_B'
p351
S'20000+10000j'
p352
ssS'node016'
p353
(dp354
S'nominal_voltage'
p355
S'2401.8'
p356
sS'phases'
p357
S'"CN"'
p358
sS'constant_power_C'
p359
S'40000+20000j'
p360
sS'name'
p361
g353
ssS'node071'
p362
(dp363
S'phases'
p364
S'"AN"'
p365
sS'nominal_voltage'
p366
S'2401.8'
p367
sS'name'
p368
g362
sS'constant_power_A'
p369
S'40000+20000j'
p370
ssS'node002'
p371
(dp372
S'phases'
p373
S'"BN"'
p374
sS'nominal_voltage'
p375
S'2401.8'
p376
sS'name'
p377
g371
sS'constant_power_B'
p378
S'20000+10000j'
p379
ssS'node033'
p380
(dp381
S'constant_current_A'
p382
S'9.615+4.808j'
p383
sS'phases'
p384
S'"AN"'
p385
sS'nominal_voltage'
p386
S'2401.8'
p387
sS'name'
p388
g380
ssS'node079'
p389
(dp390
S'phases'
p391
S'"ABCN"'
p392
sS'nominal_voltage'
p393
S'2401.8'
p394
sS'name'
p395
g389
sS'constant_impedance_A'
p396
S'432.640+865.280j'
p397
ssS'node019'
p398
(dp399
S'phases'
p400
S'"AN"'
p401
sS'nominal_voltage'
p402
S'2401.8'
p403
sS'name'
p404
g398
sS'constant_power_A'
p405
S'40000+20000j'
p406
ssS'node083'
p407
(dp408
S'nominal_voltage'
p409
S'2401.8'
p410
sS'phases'
p411
S'"ABCN"'
p412
sS'constant_power_C'
p413
S'20000+10000j'
p414
sS'name'
p415
g407
ssS'node082'
p416
(dp417
S'phases'
p418
S'"ABCN"'
p419
sS'nominal_voltage'
p420
S'2401.8'
p421
sS'name'
p422
g416
sS'constant_power_A'
p423
S'40000+20000j'
p424
ssS'node042'
p425
(dp426
S'phases'
p427
S'"ABCN"'
p428
sS'nominal_voltage'
p429
S'2401.8'
p430
sS'name'
p431
g425
sS'constant_power_A'
p432
S'20000+10000j'
p433
ssS'node080'
p434
(dp435
S'phases'
p436
S'"ABCN"'
p437
sS'nominal_voltage'
p438
S'2401.8'
p439
sS'name'
p440
g434
sS'constant_power_B'
p441
S'40000+20000j'
p442
ssS'node087'
p443
(dp444
S'phases'
p445
S'"ABCN"'
p446
sS'nominal_voltage'
p447
S'2401.8'
p448
sS'name'
p449
g443
sS'constant_power_B'
p450
S'40000+20000j'
p451
ssS'node011'
p452
(dp453
S'phases'
p454
S'"AN"'
p455
sS'nominal_voltage'
p456
S'2401.8'
p457
sS'name'
p458
g452
sS'constant_impedance_A'
p459
S'432.640+865.280j'
p460
ssS'node085'
p461
(dp462
S'nominal_voltage'
p463
S'2401.8'
p464
sS'phases'
p465
S'"CN"'
p466
sS'constant_power_C'
p467
S'40000+20000j'
p468
sS'name'
p469
g461
ssS'node084'
p470
(dp471
S'nominal_voltage'
p472
S'2401.8'
p473
sS'phases'
p474
S'"CN"'
p475
sS'constant_power_C'
p476
S'20000+10000j'
p477
sS'name'
p478
g470
ssS'node043'
p479
(dp480
S'phases'
p481
S'"BN"'
p482
sS'nominal_voltage'
p483
S'2401.8'
p484
sS'name'
p485
g479
sS'constant_impedance_B'
p486
S'432.640+865.280j'
p487
ssS'node005'
p488
(dp489
S'phases'
p490
S'"CN"'
p491
sS'nominal_voltage'
p492
S'2401.8'
p493
sS'name'
p494
g488
sS'constant_current_C'
p495
S'4.808+2.404j'
p496
ssS'node088'
p497
(dp498
S'phases'
p499
S'"AN"'
p500
sS'nominal_voltage'
p501
S'2401.8'
p502
sS'name'
p503
g497
sS'constant_power_A'
p504
S'40000+20000j'
p505
ssS'node074'
p506
(dp507
S'phases'
p508
S'"CN"'
p509
sS'nominal_voltage'
p510
S'2401.8'
p511
sS'name'
p512
g506
sS'constant_impedance_C'
p513
S'432.640+865.280j'
p514
ssS'node064'
p515
(dp516
S'phases'
p517
S'"ABCN"'
p518
sS'constant_current_B'
p519
S'18.029+8.413j'
p520
sS'nominal_voltage'
p521
S'2401.8'
p522
sS'name'
p523
g515
ssS'node102'
p524
(dp525
S'nominal_voltage'
p526
S'2401.8'
p527
sS'phases'
p528
S'"CN"'
p529
sS'constant_power_C'
p530
S'20000+10000j'
p531
sS'name'
p532
g524
ssS'node103'
p533
(dp534
S'nominal_voltage'
p535
S'2401.8'
p536
sS'phases'
p537
S'"CN"'
p538
sS'constant_power_C'
p539
S'40000+20000j'
p540
sS'name'
p541
g533
ssS'node100'
p542
(dp543
S'phases'
p544
S'"ABCN"'
p545
sS'nominal_voltage'
p546
S'2401.8'
p547
sS'name'
p548
g542
sS'constant_impedance_C'
p549
S'432.640+865.280j'
p550
ssS'node113'
p551
(dp552
S'phases'
p553
S'"AN"'
p554
sS'nominal_voltage'
p555
S'2401.8'
p556
sS'name'
p557
g551
sS'constant_impedance_A'
p558
S'432.640+865.280j'
p559
ssS'node106'
p560
(dp561
S'phases'
p562
S'"BN"'
p563
sS'nominal_voltage'
p564
S'2401.8'
p565
sS'name'
p566
g560
sS'constant_power_B'
p567
S'40000+20000j'
p568
ssS'node107'
p569
(dp570
S'phases'
p571
S'"BN"'
p572
sS'nominal_voltage'
p573
S'2401.8'
p574
sS'name'
p575
g569
sS'constant_power_B'
p576
S'40000+20000j'
p577
ssS'node104'
p578
(dp579
S'nominal_voltage'
p580
S'2401.8'
p581
sS'phases'
p582
S'"CN"'
p583
sS'constant_power_C'
p584
S'40000+20000j'
p585
sS'name'
p586
g578
ssS'node022'
p587
(dp588
S'phases'
p589
S'"BN"'
p590
sS'nominal_voltage'
p591
S'2401.8'
p592
sS'name'
p593
g587
sS'constant_impedance_B'
p594
S'432.640+865.280j'
p595
ssS'node035'
p596
(dp597
S'phases'
p598
S'"ABCD"'
p599
sS'nominal_voltage'
p600
S'2401.8'
p601
sS'name'
p602
g596
sS'constant_power_A'
p603
S'40000+20000j'
p604
ssS'node029'
p605
(dp606
S'phases'
p607
S'"ABCN"'
p608
sS'nominal_voltage'
p609
S'2401.8'
p610
sS'name'
p611
g605
sS'constant_impedance_A'
p612
S'432.640+865.280j'
p613
ssS'node028'
p614
(dp615
S'constant_current_A'
p616
S'9.615+4.808j'
p617
sS'phases'
p618
S'"ABCN"'
p619
sS'nominal_voltage'
p620
S'2401.8'
p621
sS'name'
p622
g614
ssS'node073'
p623
(dp624
S'nominal_voltage'
p625
S'2401.8'
p626
sS'phases'
p627
S'"CN"'
p628
sS'constant_power_C'
p629
S'40000+20000j'
p630
sS'name'
p631
g623
ssS'node047'
p632
(dp633
S'phases'
p634
S'"ABCN"'
p635
sS'name'
p636
g632
sS'constant_current_A'
p637
S'8.413+6.010j'
p638
sS'constant_current_C'
p639
S'8.413+6.010j'
p640
sS'constant_current_B'
p641
S'8.413+6.010j'
p642
sS'nominal_voltage'
p643
S'2401.8'
p644
ssS'node060'
p645
(dp646
S'phases'
p647
S'"ABCN"'
p648
sS'nominal_voltage'
p649
S'2401.8'
p650
sS'name'
p651
g645
sS'constant_power_A'
p652
S'20000+10000j'
p653
ssS'node045'
p654
(dp655
S'constant_current_A'
p656
S'4.808+2.404j'
p657
sS'phases'
p658
S'"AN"'
p659
sS'nominal_voltage'
p660
S'2401.8'
p661
sS'name'
p662
g654
ssS'node062'
p663
(dp664
S'phases'
p665
S'"ABCN"'
p666
sS'nominal_voltage'
p667
S'2401.8'
p668
sS'name'
p669
g663
sS'constant_impedance_C'
p670
S'432.640+865.280j'
p671
ssS'node065'
p672
(dp673
S'phases'
p674
S'"ABCD"'
p675
sS'name'
p676
g672
sS'constant_impedance_B'
p677
S'494.446+692.224j'
p678
sS'constant_impedance_C'
p679
S'247.223+346.112j'
p680
sS'nominal_voltage'
p681
S'2401.8'
p682
sS'constant_impedance_A'
p683
S'494.446+692.224j'
p684
ssS'node070'
p685
(dp686
S'phases'
p687
S'"AN"'
p688
sS'nominal_voltage'
p689
S'2401.8'
p690
sS'name'
p691
g685
sS'constant_power_A'
p692
S'20000+10000j'
p693
ssS'node041'
p694
(dp695
S'nominal_voltage'
p696
S'2401.8'
p697
sS'phases'
p698
S'"CN"'
p699
sS'constant_power_C'
p700
S'20000+10000j'
p701
sS'name'
p702
g694
ssS'node066'
p703
(dp704
S'nominal_voltage'
p705
S'2401.8'
p706
sS'phases'
p707
S'"ABCN"'
p708
sS'constant_power_C'
p709
S'75000+35000j'
p710
sS'name'
p711
g703
ssS'node009'
p712
(dp713
S'phases'
p714
S'"AN"'
p715
sS'nominal_voltage'
p716
S'2401.8'
p717
sS'name'
p718
g712
sS'constant_power_A'
p719
S'40000+20000j'
p720
ssS'node068'
p721
(dp722
S'phases'
p723
S'"AN"'
p724
sS'nominal_voltage'
p725
S'2401.8'
p726
sS'name'
p727
g721
sS'constant_power_A'
p728
S'20000+10000j'
p729
ssS'node001'
p730
(dp731
S'phases'
p732
S'"ABCN"'
p733
sS'nominal_voltage'
p734
S'2401.8'
p735
sS'name'
p736
g730
sS'constant_power_A'
p737
S'40000+20000j'
p738
ssS'node017'
p739
(dp740
S'nominal_voltage'
p741
S'2401.8'
p742
sS'phases'
p743
S'"CN"'
p744
sS'constant_power_C'
p745
S'20000+10000j'
p746
sS'name'
p747
g739
ssS'node007'
p748
(dp749
S'phases'
p750
S'"ABCN"'
p751
sS'nominal_voltage'
p752
S'2401.8'
p753
sS'name'
p754
g748
sS'constant_power_A'
p755
S'20000+10000j'
p756
ssS'node006'
p757
(dp758
S'phases'
p759
S'"CN"'
p760
sS'nominal_voltage'
p761
S'2401.8'
p762
sS'name'
p763
g757
sS'constant_impedance_C'
p764
S'432.640+865.280j'
p765
ssS'node049'
p766
(dp767
S'phases'
p768
S'"ABCN"'
p769
sS'name'
p770
g766
sS'nominal_voltage'
p771
S'2401.8'
p772
sS'constant_power_B'
p773
S'70000+50000j'
p774
sS'constant_power_A'
p775
S'35000+25000j'
p776
sS'constant_power_C'
p777
S'35000+20000j'
p778
ssS'node086'
p779
(dp780
S'phases'
p781
S'"ABCN"'
p782
sS'nominal_voltage'
p783
S'2401.8'
p784
sS'name'
p785
g779
sS'constant_power_B'
p786
S'20000+10000j'
p787
sssS'underground_line'
p788
(dp789
S'line063064'
p790
(dp791
S'phases'
p792
S'"ABC"'
p793
sS'from'
p794
S'node063'
p795
sS'name'
p796
g790
sS'to'
p797
S'node064'
p798
sS'length'
p799
S'350'
p800
sS'configuration'
p801
S'lineconfiguration12'
p802
ssS'line060062'
p803
(dp804
S'phases'
p805
S'"ABC"'
p806
sS'from'
p807
S'node060'
p808
sS'name'
p809
g803
sS'to'
p810
S'node062'
p811
sS'length'
p812
S'250'
p813
sS'configuration'
p814
S'lineconfiguration12'
p815
ssS'line064065'
p816
(dp817
S'phases'
p818
S'"ABC"'
p819
sS'from'
p820
S'node064'
p821
sS'name'
p822
g816
sS'to'
p823
S'node065'
p824
sS'length'
p825
S'425'
p826
sS'configuration'
p827
S'lineconfiguration12'
p828
ssS'line065066'
p829
(dp830
S'phases'
p831
S'"ABC"'
p832
sS'from'
p833
S'node065'
p834
sS'name'
p835
g829
sS'to'
p836
S'node066'
p837
sS'length'
p838
S'325'
p839
sS'configuration'
p840
S'lineconfiguration12'
p841
ssS'line062063'
p842
(dp843
S'phases'
p844
S'"ABC"'
p845
sS'from'
p846
S'node062'
p847
sS'name'
p848
g842
sS'to'
p849
S'node063'
p850
sS'length'
p851
S'175'
p852
sS'configuration'
p853
S'lineconfiguration12'
p854
sssS'transformer'
p855
(dp856
S'XFMR1'
p857
(dp858
S'to'
p859
S'node610'
p860
sS'phases'
p861
S'"ABC"'
p862
sS'configuration'
p863
S'XFMRconfiguration2'
p864
sS'from'
p865
S'node061'
p866
sS'name'
p867
g857
sssS'overhead_line'
p868
(dp869
S'line027033'
p870
(dp871
S'phases'
p872
S'"AN"'
p873
sS'from'
p874
S'node027'
p875
sS'name'
p876
g870
sS'to'
p877
S'node033'
p878
sS'length'
p879
S'500'
p880
sS'configuration'
p881
S'lineconfiguration9'
p882
ssS'line093095'
p883
(dp884
S'phases'
p885
S'"ABCN"'
p886
sS'from'
p887
S'node093'
p888
sS'name'
p889
g883
sS'to'
p890
S'node095'
p891
sS'length'
p892
S'300'
p893
sS'configuration'
p894
S'lineconfiguration6'
p895
ssS'line025028'
p896
(dp897
S'phases'
p898
S'"ABCN"'
p899
sS'from'
p900
S'node025'
p901
sS'name'
p902
g896
sS'to'
p903
S'node028'
p904
sS'length'
p905
S'200'
p906
sS'configuration'
p907
S'lineconfiguration2'
p908
ssS'line089090'
p909
(dp910
S'phases'
p911
S'"BN"'
p912
sS'from'
p913
S'node089'
p914
sS'name'
p915
g909
sS'to'
p916
S'node090'
p917
sS'length'
p918
S'225'
p919
sS'configuration'
p920
S'lineconfiguration10'
p921
ssS'line089091'
p922
(dp923
S'phases'
p924
S'"ABCN"'
p925
sS'from'
p926
S'node089'
p927
sS'name'
p928
g922
sS'to'
p929
S'node091'
p930
sS'length'
p931
S'225'
p932
sS'configuration'
p933
S'lineconfiguration6'
p934
ssS'line078079'
p935
(dp936
S'phases'
p937
S'"ABCN"'
p938
sS'from'
p939
S'node078'
p940
sS'name'
p941
g935
sS'to'
p942
S'node079'
p943
sS'length'
p944
S'225'
p945
sS'configuration'
p946
S'lineconfiguration6'
p947
ssS'line108300'
p948
(dp949
S'phases'
p950
S'"ABCN"'
p951
sS'from'
p952
S'node108'
p953
sS'name'
p954
g948
sS'to'
p955
S'node300'
p956
sS'length'
p957
S'1000'
p958
sS'configuration'
p959
S'lineconfiguration3'
p960
ssS'line093094'
p961
(dp962
S'phases'
p963
S'"AN"'
p964
sS'from'
p965
S'node093'
p966
sS'name'
p967
g961
sS'to'
p968
S'node094'
p969
sS'length'
p970
S'275'
p971
sS'configuration'
p972
S'lineconfiguration9'
p973
ssS'line051151'
p974
(dp975
S'phases'
p976
S'"ABCN"'
p977
sS'from'
p978
S'node051'
p979
sS'name'
p980
g974
sS'to'
p981
S'node151'
p982
sS'length'
p983
S'500'
p984
sS'configuration'
p985
S'lineconfiguration4'
p986
ssS'line082083'
p987
(dp988
S'phases'
p989
S'"ABCN"'
p990
sS'from'
p991
S'node082'
p992
sS'name'
p993
g987
sS'to'
p994
S'node083'
p995
sS'length'
p996
S'250'
p997
sS'configuration'
p998
S'lineconfiguration6'
p999
ssS'line060160'
p1000
(dp1001
S'phases'
p1002
S'"ABCN"'
p1003
sS'from'
p1004
S'node060'
p1005
sS'name'
p1006
g1000
sS'to'
p1007
S'node160'
p1008
sS'length'
p1009
S'50'
p1010
sS'configuration'
p1011
S'lineconfiguration1'
p1012
ssS'line045046'
p1013
(dp1014
S'phases'
p1015
S'"AN"'
p1016
sS'from'
p1017
S'node045'
p1018
sS'name'
p1019
g1013
sS'to'
p1020
S'node046'
p1021
sS'length'
p1022
S'300'
p1023
sS'configuration'
p1024
S'lineconfiguration9'
p1025
ssS'line067097'
p1026
(dp1027
S'phases'
p1028
S'"ABCN"'
p1029
sS'from'
p1030
S'node067'
p1031
sS'name'
p1032
g1026
sS'to'
p1033
S'node097'
p1034
sS'length'
p1035
S'250'
p1036
sS'configuration'
p1037
S'lineconfiguration3'
p1038
ssS'line149001'
p1039
(dp1040
S'phases'
p1041
S'"ABCN"'
p1042
sS'from'
p1043
S'node149'
p1044
sS'name'
p1045
g1039
sS'to'
p1046
S'node001'
p1047
sS'length'
p1048
S'400'
p1049
sS'configuration'
p1050
S'lineconfiguration1'
p1051
ssS'line100450'
p1052
(dp1053
S'phases'
p1054
S'"ABCN"'
p1055
sS'from'
p1056
S'node100'
p1057
sS'name'
p1058
g1052
sS'to'
p1059
S'node450'
p1060
sS'length'
p1061
S'800'
p1062
sS'configuration'
p1063
S'lineconfiguration3'
p1064
ssS'line013018'
p1065
(dp1066
S'phases'
p1067
S'"ABCN"'
p1068
sS'from'
p1069
S'node013'
p1070
sS'name'
p1071
g1065
sS'to'
p1072
S'node018'
p1073
sS'length'
p1074
S'825'
p1075
sS'configuration'
p1076
S'lineconfiguration2'
p1077
ssS'line018019'
p1078
(dp1079
S'phases'
p1080
S'"AN"'
p1081
sS'from'
p1082
S'node018'
p1083
sS'name'
p1084
g1078
sS'to'
p1085
S'node019'
p1086
sS'length'
p1087
S'250'
p1088
sS'configuration'
p1089
S'lineconfiguration9'
p1090
ssS'line152052'
p1091
(dp1092
S'phases'
p1093
S'"ABCN"'
p1094
sS'from'
p1095
S'node152'
p1096
sS'name'
p1097
g1091
sS'to'
p1098
S'node052'
p1099
sS'length'
p1100
S'400'
p1101
sS'configuration'
p1102
S'lineconfiguration1'
p1103
ssS'line098099'
p1104
(dp1105
S'phases'
p1106
S'"ABCN"'
p1107
sS'from'
p1108
S'node098'
p1109
sS'name'
p1110
g1104
sS'to'
p1111
S'node099'
p1112
sS'length'
p1113
S'550'
p1114
sS'configuration'
p1115
S'lineconfiguration3'
p1116
ssS'line054057'
p1117
(dp1118
S'phases'
p1119
S'"ABCN"'
p1120
sS'from'
p1121
S'node054'
p1122
sS'name'
p1123
g1117
sS'to'
p1124
S'node057'
p1125
sS'length'
p1126
S'350'
p1127
sS'configuration'
p1128
S'lineconfiguration3'
p1129
ssS'line054055'
p1130
(dp1131
S'phases'
p1132
S'"ABCN"'
p1133
sS'from'
p1134
S'node054'
p1135
sS'name'
p1136
g1130
sS'to'
p1137
S'node055'
p1138
sS'length'
p1139
S'275'
p1140
sS'configuration'
p1141
S'lineconfiguration1'
p1142
ssS'line019020'
p1143
(dp1144
S'phases'
p1145
S'"AN"'
p1146
sS'from'
p1147
S'node019'
p1148
sS'name'
p1149
g1143
sS'to'
p1150
S'node020'
p1151
sS'length'
p1152
S'325'
p1153
sS'configuration'
p1154
S'lineconfiguration9'
p1155
ssS'line086087'
p1156
(dp1157
S'phases'
p1158
S'"ABCN"'
p1159
sS'from'
p1160
S'node086'
p1161
sS'name'
p1162
g1156
sS'to'
p1163
S'node087'
p1164
sS'length'
p1165
S'450'
p1166
sS'configuration'
p1167
S'lineconfiguration6'
p1168
ssS'line003005'
p1169
(dp1170
S'phases'
p1171
S'"CN"'
p1172
sS'from'
p1173
S'node003'
p1174
sS'name'
p1175
g1169
sS'to'
p1176
S'node005'
p1177
sS'length'
p1178
S'325'
p1179
sS'configuration'
p1180
S'lineconfiguration11'
p1181
ssS'line003004'
p1182
(dp1183
S'phases'
p1184
S'"CN"'
p1185
sS'from'
p1186
S'node003'
p1187
sS'name'
p1188
g1182
sS'to'
p1189
S'node004'
p1190
sS'length'
p1191
S'200'
p1192
sS'configuration'
p1193
S'lineconfiguration11'
p1194
ssS'line053054'
p1195
(dp1196
S'phases'
p1197
S'"ABCN"'
p1198
sS'from'
p1199
S'node053'
p1200
sS'name'
p1201
g1195
sS'to'
p1202
S'node054'
p1203
sS'length'
p1204
S'125'
p1205
sS'configuration'
p1206
S'lineconfiguration1'
p1207
ssS'line036037'
p1208
(dp1209
S'phases'
p1210
S'"AN"'
p1211
sS'from'
p1212
S'node036'
p1213
sS'name'
p1214
g1208
sS'to'
p1215
S'node037'
p1216
sS'length'
p1217
S'300'
p1218
sS'configuration'
p1219
S'lineconfiguration9'
p1220
ssS'line057060'
p1221
(dp1222
S'phases'
p1223
S'"ABCN"'
p1224
sS'from'
p1225
S'node057'
p1226
sS'name'
p1227
g1221
sS'to'
p1228
S'node060'
p1229
sS'length'
p1230
S'750'
p1231
sS'configuration'
p1232
S'lineconfiguration3'
p1233
ssS'line036038'
p1234
(dp1235
S'phases'
p1236
S'"BN"'
p1237
sS'from'
p1238
S'node036'
p1239
sS'name'
p1240
g1234
sS'to'
p1241
S'node038'
p1242
sS'length'
p1243
S'250'
p1244
sS'configuration'
p1245
S'lineconfiguration10'
p1246
ssS'line035036'
p1247
(dp1248
S'phases'
p1249
S'"ABN"'
p1250
sS'from'
p1251
S'node035'
p1252
sS'name'
p1253
g1247
sS'to'
p1254
S'node036'
p1255
sS'length'
p1256
S'650'
p1257
sS'configuration'
p1258
S'lineconfiguration8'
p1259
ssS'line101105'
p1260
(dp1261
S'phases'
p1262
S'"ABCN"'
p1263
sS'from'
p1264
S'node101'
p1265
sS'name'
p1266
g1260
sS'to'
p1267
S'node105'
p1268
sS'length'
p1269
S'275'
p1270
sS'configuration'
p1271
S'lineconfiguration3'
p1272
ssS'line101102'
p1273
(dp1274
S'phases'
p1275
S'"CN"'
p1276
sS'from'
p1277
S'node101'
p1278
sS'name'
p1279
g1273
sS'to'
p1280
S'node102'
p1281
sS'length'
p1282
S'225'
p1283
sS'configuration'
p1284
S'lineconfiguration11'
p1285
ssS'line073074'
p1286
(dp1287
S'phases'
p1288
S'"CN"'
p1289
sS'from'
p1290
S'node073'
p1291
sS'name'
p1292
g1286
sS'to'
p1293
S'node074'
p1294
sS'length'
p1295
S'350'
p1296
sS'configuration'
p1297
S'lineconfiguration11'
p1298
ssS'line040041'
p1299
(dp1300
S'phases'
p1301
S'"CN"'
p1302
sS'from'
p1303
S'node040'
p1304
sS'name'
p1305
g1299
sS'to'
p1306
S'node041'
p1307
sS'length'
p1308
S'325'
p1309
sS'configuration'
p1310
S'lineconfiguration11'
p1311
ssS'line040042'
p1312
(dp1313
S'phases'
p1314
S'"ABCN"'
p1315
sS'from'
p1316
S'node040'
p1317
sS'name'
p1318
g1312
sS'to'
p1319
S'node042'
p1320
sS'length'
p1321
S'250'
p1322
sS'configuration'
p1323
S'lineconfiguration1'
p1324
ssS'line072073'
p1325
(dp1326
S'phases'
p1327
S'"CN"'
p1328
sS'from'
p1329
S'node072'
p1330
sS'name'
p1331
g1325
sS'to'
p1332
S'node073'
p1333
sS'length'
p1334
S'275'
p1335
sS'configuration'
p1336
S'lineconfiguration11'
p1337
ssS'line007008'
p1338
(dp1339
S'phases'
p1340
S'"ABCN"'
p1341
sS'from'
p1342
S'node007'
p1343
sS'name'
p1344
g1338
sS'to'
p1345
S'node008'
p1346
sS'length'
p1347
S'200'
p1348
sS'configuration'
p1349
S'lineconfiguration1'
p1350
ssS'line072076'
p1351
(dp1352
S'phases'
p1353
S'"ABCN"'
p1354
sS'from'
p1355
S'node072'
p1356
sS'name'
p1357
g1351
sS'to'
p1358
S'node076'
p1359
sS'length'
p1360
S'200'
p1361
sS'configuration'
p1362
S'lineconfiguration3'
p1363
ssS'line097197'
p1364
(dp1365
S'phases'
p1366
S'"ABCN"'
p1367
sS'from'
p1368
S'node097'
p1369
sS'name'
p1370
g1364
sS'to'
p1371
S'node197'
p1372
sS'length'
p1373
S'50'
p1374
sS'configuration'
p1375
S'lineconfiguration1'
p1376
ssS'line047049'
p1377
(dp1378
S'phases'
p1379
S'"ABCN"'
p1380
sS'from'
p1381
S'node047'
p1382
sS'name'
p1383
g1377
sS'to'
p1384
S'node049'
p1385
sS'length'
p1386
S'250'
p1387
sS'configuration'
p1388
S'lineconfiguration4'
p1389
ssS'line047048'
p1390
(dp1391
S'phases'
p1392
S'"ABCN"'
p1393
sS'from'
p1394
S'node047'
p1395
sS'name'
p1396
g1390
sS'to'
p1397
S'node048'
p1398
sS'length'
p1399
S'150'
p1400
sS'configuration'
p1401
S'lineconfiguration4'
p1402
ssS'line080081'
p1403
(dp1404
S'phases'
p1405
S'"ABCN"'
p1406
sS'from'
p1407
S'node080'
p1408
sS'name'
p1409
g1403
sS'to'
p1410
S'node081'
p1411
sS'length'
p1412
S'475'
p1413
sS'configuration'
p1414
S'lineconfiguration6'
p1415
ssS'line070071'
p1416
(dp1417
S'phases'
p1418
S'"AN"'
p1419
sS'from'
p1420
S'node070'
p1421
sS'name'
p1422
g1416
sS'to'
p1423
S'node071'
p1424
sS'length'
p1425
S'275'
p1426
sS'configuration'
p1427
S'lineconfiguration9'
p1428
ssS'line105108'
p1429
(dp1430
S'phases'
p1431
S'"ABCN"'
p1432
sS'from'
p1433
S'node105'
p1434
sS'name'
p1435
g1429
sS'to'
p1436
S'node108'
p1437
sS'length'
p1438
S'325'
p1439
sS'configuration'
p1440
S'lineconfiguration3'
p1441
ssS'line087089'
p1442
(dp1443
S'phases'
p1444
S'"ABCN"'
p1445
sS'from'
p1446
S'node087'
p1447
sS'name'
p1448
g1442
sS'to'
p1449
S'node089'
p1450
sS'length'
p1451
S'275'
p1452
sS'configuration'
p1453
S'lineconfiguration6'
p1454
ssS'line087088'
p1455
(dp1456
S'phases'
p1457
S'"AN"'
p1458
sS'from'
p1459
S'node087'
p1460
sS'name'
p1461
g1455
sS'to'
p1462
S'node088'
p1463
sS'length'
p1464
S'175'
p1465
sS'configuration'
p1466
S'lineconfiguration9'
p1467
ssS'line021023'
p1468
(dp1469
S'phases'
p1470
S'"ABCN"'
p1471
sS'from'
p1472
S'node021'
p1473
sS'name'
p1474
g1468
sS'to'
p1475
S'node023'
p1476
sS'length'
p1477
S'250'
p1478
sS'configuration'
p1479
S'lineconfiguration2'
p1480
ssS'line021022'
p1481
(dp1482
S'phases'
p1483
S'"BN"'
p1484
sS'from'
p1485
S'node021'
p1486
sS'name'
p1487
g1481
sS'to'
p1488
S'node022'
p1489
sS'length'
p1490
S'525'
p1491
sS'configuration'
p1492
S'lineconfiguration10'
p1493
ssS'line018135'
p1494
(dp1495
S'phases'
p1496
S'"ABCN"'
p1497
sS'from'
p1498
S'node018'
p1499
sS'name'
p1500
g1494
sS'to'
p1501
S'node135'
p1502
sS'length'
p1503
S'50'
p1504
sS'configuration'
p1505
S'lineconfiguration1'
p1506
ssS'line015017'
p1507
(dp1508
S'phases'
p1509
S'"CN"'
p1510
sS'from'
p1511
S'node015'
p1512
sS'name'
p1513
g1507
sS'to'
p1514
S'node017'
p1515
sS'length'
p1516
S'350'
p1517
sS'configuration'
p1518
S'lineconfiguration11'
p1519
ssS'line015016'
p1520
(dp1521
S'phases'
p1522
S'"CN"'
p1523
sS'from'
p1524
S'node015'
p1525
sS'name'
p1526
g1520
sS'to'
p1527
S'node016'
p1528
sS'length'
p1529
S'375'
p1530
sS'configuration'
p1531
S'lineconfiguration11'
p1532
ssS'line067072'
p1533
(dp1534
S'phases'
p1535
S'"ABCN"'
p1536
sS'from'
p1537
S'node067'
p1538
sS'name'
p1539
g1533
sS'to'
p1540
S'node072'
p1541
sS'length'
p1542
S'275'
p1543
sS'configuration'
p1544
S'lineconfiguration3'
p1545
ssS'line014010'
p1546
(dp1547
S'phases'
p1548
S'"AN"'
p1549
sS'from'
p1550
S'node014'
p1551
sS'name'
p1552
g1546
sS'to'
p1553
S'node010'
p1554
sS'length'
p1555
S'250'
p1556
sS'configuration'
p1557
S'lineconfiguration9'
p1558
ssS'line014011'
p1559
(dp1560
S'phases'
p1561
S'"AN"'
p1562
sS'from'
p1563
S'node014'
p1564
sS'name'
p1565
g1559
sS'to'
p1566
S'node011'
p1567
sS'length'
p1568
S'250'
p1569
sS'configuration'
p1570
S'lineconfiguration9'
p1571
ssS'line110111'
p1572
(dp1573
S'phases'
p1574
S'"AN"'
p1575
sS'from'
p1576
S'node110'
p1577
sS'name'
p1578
g1572
sS'to'
p1579
S'node111'
p1580
sS'length'
p1581
S'575'
p1582
sS'configuration'
p1583
S'lineconfiguration9'
p1584
ssS'line110112'
p1585
(dp1586
S'phases'
p1587
S'"AN"'
p1588
sS'from'
p1589
S'node110'
p1590
sS'name'
p1591
g1585
sS'to'
p1592
S'node112'
p1593
sS'length'
p1594
S'125'
p1595
sS'configuration'
p1596
S'lineconfiguration9'
p1597
ssS'line058059'
p1598
(dp1599
S'phases'
p1600
S'"BN"'
p1601
sS'from'
p1602
S'node058'
p1603
sS'name'
p1604
g1598
sS'to'
p1605
S'node059'
p1606
sS'length'
p1607
S'250'
p1608
sS'configuration'
p1609
S'lineconfiguration10'
p1610
ssS'line001003'
p1611
(dp1612
S'phases'
p1613
S'"CN"'
p1614
sS'from'
p1615
S'node001'
p1616
sS'name'
p1617
g1611
sS'to'
p1618
S'node003'
p1619
sS'length'
p1620
S'250'
p1621
sS'configuration'
p1622
S'lineconfiguration11'
p1623
ssS'line001002'
p1624
(dp1625
S'phases'
p1626
S'"BN"'
p1627
sS'from'
p1628
S'node001'
p1629
sS'name'
p1630
g1624
sS'to'
p1631
S'node002'
p1632
sS'length'
p1633
S'175'
p1634
sS'configuration'
p1635
S'lineconfiguration10'
p1636
ssS'line001007'
p1637
(dp1638
S'phases'
p1639
S'"ABCN"'
p1640
sS'from'
p1641
S'node001'
p1642
sS'name'
p1643
g1637
sS'to'
p1644
S'node007'
p1645
sS'length'
p1646
S'300'
p1647
sS'configuration'
p1648
S'lineconfiguration1'
p1649
ssS'line084085'
p1650
(dp1651
S'phases'
p1652
S'"CN"'
p1653
sS'from'
p1654
S'node084'
p1655
sS'name'
p1656
g1650
sS'to'
p1657
S'node085'
p1658
sS'length'
p1659
S'475'
p1660
sS'configuration'
p1661
S'lineconfiguration11'
p1662
ssS'line042044'
p1663
(dp1664
S'phases'
p1665
S'"ABCN"'
p1666
sS'from'
p1667
S'node042'
p1668
sS'name'
p1669
g1663
sS'to'
p1670
S'node044'
p1671
sS'length'
p1672
S'200'
p1673
sS'configuration'
p1674
S'lineconfiguration1'
p1675
ssS'line076077'
p1676
(dp1677
S'phases'
p1678
S'"ABCN"'
p1679
sS'from'
p1680
S'node076'
p1681
sS'name'
p1682
g1676
sS'to'
p1683
S'node077'
p1684
sS'length'
p1685
S'400'
p1686
sS'configuration'
p1687
S'lineconfiguration6'
p1688
ssS'line108109'
p1689
(dp1690
S'phases'
p1691
S'"AN"'
p1692
sS'from'
p1693
S'node108'
p1694
sS'name'
p1695
g1689
sS'to'
p1696
S'node109'
p1697
sS'length'
p1698
S'450'
p1699
sS'configuration'
p1700
S'lineconfiguration9'
p1701
ssS'line068069'
p1702
(dp1703
S'phases'
p1704
S'"AN"'
p1705
sS'from'
p1706
S'node068'
p1707
sS'name'
p1708
g1702
sS'to'
p1709
S'node069'
p1710
sS'length'
p1711
S'275'
p1712
sS'configuration'
p1713
S'lineconfiguration9'
p1714
ssS'line018021'
p1715
(dp1716
S'phases'
p1717
S'"ABCN"'
p1718
sS'from'
p1719
S'node018'
p1720
sS'name'
p1721
g1715
sS'to'
p1722
S'node021'
p1723
sS'length'
p1724
S'300'
p1725
sS'configuration'
p1726
S'lineconfiguration2'
p1727
ssS'line095096'
p1728
(dp1729
S'phases'
p1730
S'"BN"'
p1731
sS'from'
p1732
S'node095'
p1733
sS'name'
p1734
g1728
sS'to'
p1735
S'node096'
p1736
sS'length'
p1737
S'200'
p1738
sS'configuration'
p1739
S'lineconfiguration10'
p1740
ssS'line028029'
p1741
(dp1742
S'phases'
p1743
S'"ABCN"'
p1744
sS'from'
p1745
S'node028'
p1746
sS'name'
p1747
g1741
sS'to'
p1748
S'node029'
p1749
sS'length'
p1750
S'300'
p1751
sS'configuration'
p1752
S'lineconfiguration2'
p1753
ssS'line067068'
p1754
(dp1755
S'phases'
p1756
S'"AN"'
p1757
sS'from'
p1758
S'node067'
p1759
sS'name'
p1760
g1754
sS'to'
p1761
S'node068'
p1762
sS'length'
p1763
S'200'
p1764
sS'configuration'
p1765
S'lineconfiguration9'
p1766
ssS'line052053'
p1767
(dp1768
S'phases'
p1769
S'"ABCN"'
p1770
sS'from'
p1771
S'node052'
p1772
sS'name'
p1773
g1767
sS'to'
p1774
S'node053'
p1775
sS'length'
p1776
S'200'
p1777
sS'configuration'
p1778
S'lineconfiguration1'
p1779
ssS'line105106'
p1780
(dp1781
S'phases'
p1782
S'"BN"'
p1783
sS'from'
p1784
S'node105'
p1785
sS'name'
p1786
g1780
sS'to'
p1787
S'node106'
p1788
sS'length'
p1789
S'225'
p1790
sS'configuration'
p1791
S'lineconfiguration10'
p1792
ssS'line034015'
p1793
(dp1794
S'phases'
p1795
S'"CN"'
p1796
sS'from'
p1797
S'node034'
p1798
sS'name'
p1799
g1793
sS'to'
p1800
S'node015'
p1801
sS'length'
p1802
S'100'
p1803
sS'configuration'
p1804
S'lineconfiguration11'
p1805
ssS'line031032'
p1806
(dp1807
S'phases'
p1808
S'"CN"'
p1809
sS'from'
p1810
S'node031'
p1811
sS'name'
p1812
g1806
sS'to'
p1813
S'node032'
p1814
sS'length'
p1815
S'300'
p1816
sS'configuration'
p1817
S'lineconfiguration11'
p1818
ssS'line005006'
p1819
(dp1820
S'phases'
p1821
S'"CN"'
p1822
sS'from'
p1823
S'node005'
p1824
sS'name'
p1825
g1819
sS'to'
p1826
S'node006'
p1827
sS'length'
p1828
S'250'
p1829
sS'configuration'
p1830
S'lineconfiguration11'
p1831
ssS'line057058'
p1832
(dp1833
S'phases'
p1834
S'"BN"'
p1835
sS'from'
p1836
S'node057'
p1837
sS'name'
p1838
g1832
sS'to'
p1839
S'node058'
p1840
sS'length'
p1841
S'250'
p1842
sS'configuration'
p1843
S'lineconfiguration10'
p1844
ssS'line044045'
p1845
(dp1846
S'phases'
p1847
S'"AN"'
p1848
sS'from'
p1849
S'node044'
p1850
sS'name'
p1851
g1845
sS'to'
p1852
S'node045'
p1853
sS'length'
p1854
S'200'
p1855
sS'configuration'
p1856
S'lineconfiguration9'
p1857
ssS'line197101'
p1858
(dp1859
S'phases'
p1860
S'"ABCN"'
p1861
sS'from'
p1862
S'node197'
p1863
sS'name'
p1864
g1858
sS'to'
p1865
S'node101'
p1866
sS'length'
p1867
S'250'
p1868
sS'configuration'
p1869
S'lineconfiguration3'
p1870
ssS'line029030'
p1871
(dp1872
S'phases'
p1873
S'"ABCN"'
p1874
sS'from'
p1875
S'node029'
p1876
sS'name'
p1877
g1871
sS'to'
p1878
S'node030'
p1879
sS'length'
p1880
S'350'
p1881
sS'configuration'
p1882
S'lineconfiguration2'
p1883
ssS'line042043'
p1884
(dp1885
S'phases'
p1886
S'"BN"'
p1887
sS'from'
p1888
S'node042'
p1889
sS'name'
p1890
g1884
sS'to'
p1891
S'node043'
p1892
sS'length'
p1893
S'500'
p1894
sS'configuration'
p1895
S'lineconfiguration10'
p1896
ssS'line109110'
p1897
(dp1898
S'phases'
p1899
S'"AN"'
p1900
sS'from'
p1901
S'node109'
p1902
sS'name'
p1903
g1897
sS'to'
p1904
S'node110'
p1905
sS'length'
p1906
S'300'
p1907
sS'configuration'
p1908
S'lineconfiguration9'
p1909
ssS'line077078'
p1910
(dp1911
S'phases'
p1912
S'"ABCN"'
p1913
sS'from'
p1914
S'node077'
p1915
sS'name'
p1916
g1910
sS'to'
p1917
S'node078'
p1918
sS'length'
p1919
S'100'
p1920
sS'configuration'
p1921
S'lineconfiguration6'
p1922
ssS'line023025'
p1923
(dp1924
S'phases'
p1925
S'"ABCN"'
p1926
sS'from'
p1927
S'node023'
p1928
sS'name'
p1929
g1923
sS'to'
p1930
S'node025'
p1931
sS'length'
p1932
S'275'
p1933
sS'configuration'
p1934
S'lineconfiguration2'
p1935
ssS'line023024'
p1936
(dp1937
S'phases'
p1938
S'"CN"'
p1939
sS'from'
p1940
S'node023'
p1941
sS'name'
p1942
g1936
sS'to'
p1943
S'node024'
p1944
sS'length'
p1945
S'550'
p1946
sS'configuration'
p1947
S'lineconfiguration11'
p1948
ssS'line091093'
p1949
(dp1950
S'phases'
p1951
S'"ABCN"'
p1952
sS'from'
p1953
S'node091'
p1954
sS'name'
p1955
g1949
sS'to'
p1956
S'node093'
p1957
sS'length'
p1958
S'225'
p1959
sS'configuration'
p1960
S'lineconfiguration6'
p1961
ssS'line091092'
p1962
(dp1963
S'phases'
p1964
S'"CN"'
p1965
sS'from'
p1966
S'node091'
p1967
sS'name'
p1968
g1962
sS'to'
p1969
S'node092'
p1970
sS'length'
p1971
S'300'
p1972
sS'configuration'
p1973
S'lineconfiguration11'
p1974
ssS'line106107'
p1975
(dp1976
S'phases'
p1977
S'"BN"'
p1978
sS'from'
p1979
S'node106'
p1980
sS'name'
p1981
g1975
sS'to'
p1982
S'node107'
p1983
sS'length'
p1984
S'575'
p1985
sS'configuration'
p1986
S'lineconfiguration10'
p1987
ssS'line050051'
p1988
(dp1989
S'phases'
p1990
S'"ABCN"'
p1991
sS'from'
p1992
S'node050'
p1993
sS'name'
p1994
g1988
sS'to'
p1995
S'node051'
p1996
sS'length'
p1997
S'250'
p1998
sS'configuration'
p1999
S'lineconfiguration4'
p2000
ssS'line069070'
p2001
(dp2002
S'phases'
p2003
S'"AN"'
p2004
sS'from'
p2005
S'node069'
p2006
sS'name'
p2007
g2001
sS'to'
p2008
S'node070'
p2009
sS'length'
p2010
S'325'
p2011
sS'configuration'
p2012
S'lineconfiguration9'
p2013
ssS'line049050'
p2014
(dp2015
S'phases'
p2016
S'"ABCN"'
p2017
sS'from'
p2018
S'node049'
p2019
sS'name'
p2020
g2014
sS'to'
p2021
S'node050'
p2022
sS'length'
p2023
S'250'
p2024
sS'configuration'
p2025
S'lineconfiguration4'
p2026
ssS'line008009'
p2027
(dp2028
S'phases'
p2029
S'"AN"'
p2030
sS'from'
p2031
S'node008'
p2032
sS'name'
p2033
g2027
sS'to'
p2034
S'node009'
p2035
sS'length'
p2036
S'225'
p2037
sS'configuration'
p2038
S'lineconfiguration9'
p2039
ssS'line026027'
p2040
(dp2041
S'phases'
p2042
S'"ACN"'
p2043
sS'from'
p2044
S'node026'
p2045
sS'name'
p2046
g2040
sS'to'
p2047
S'node027'
p2048
sS'length'
p2049
S'275'
p2050
sS'configuration'
p2051
S'lineconfiguration7'
p2052
ssS'line081082'
p2053
(dp2054
S'phases'
p2055
S'"ABCN"'
p2056
sS'from'
p2057
S'node081'
p2058
sS'name'
p2059
g2053
sS'to'
p2060
S'node082'
p2061
sS'length'
p2062
S'250'
p2063
sS'configuration'
p2064
S'lineconfiguration6'
p2065
ssS'line013152'
p2066
(dp2067
S'phases'
p2068
S'"ABCN"'
p2069
sS'from'
p2070
S'node013'
p2071
sS'name'
p2072
g2066
sS'to'
p2073
S'node152'
p2074
sS'length'
p2075
S'50'
p2076
sS'configuration'
p2077
S'lineconfiguration1'
p2078
ssS'line112113'
p2079
(dp2080
S'phases'
p2081
S'"AN"'
p2082
sS'from'
p2083
S'node112'
p2084
sS'name'
p2085
g2079
sS'to'
p2086
S'node113'
p2087
sS'length'
p2088
S'525'
p2089
sS'configuration'
p2090
S'lineconfiguration9'
p2091
ssS'line081084'
p2092
(dp2093
S'phases'
p2094
S'"CN"'
p2095
sS'from'
p2096
S'node081'
p2097
sS'name'
p2098
g2092
sS'to'
p2099
S'node084'
p2100
sS'length'
p2101
S'675'
p2102
sS'configuration'
p2103
S'lineconfiguration11'
p2104
ssS'line102103'
p2105
(dp2106
S'phases'
p2107
S'"CN"'
p2108
sS'from'
p2109
S'node102'
p2110
sS'name'
p2111
g2105
sS'to'
p2112
S'node103'
p2113
sS'length'
p2114
S'325'
p2115
sS'configuration'
p2116
S'lineconfiguration11'
p2117
ssS'line060061'
p2118
(dp2119
S'phases'
p2120
S'"ABCN"'
p2121
sS'from'
p2122
S'node060'
p2123
sS'name'
p2124
g2118
sS'to'
p2125
S'node061'
p2126
sS'length'
p2127
S'550'
p2128
sS'configuration'
p2129
S'lineconfiguration5'
p2130
ssS'line099100'
p2131
(dp2132
S'phases'
p2133
S'"ABCN"'
p2134
sS'from'
p2135
S'node099'
p2136
sS'name'
p2137
g2131
sS'to'
p2138
S'node100'
p2139
sS'length'
p2140
S'300'
p2141
sS'configuration'
p2142
S'lineconfiguration3'
p2143
ssS'line074075'
p2144
(dp2145
S'phases'
p2146
S'"CN"'
p2147
sS'from'
p2148
S'node074'
p2149
sS'name'
p2150
g2144
sS'to'
p2151
S'node075'
p2152
sS'length'
p2153
S'400'
p2154
sS'configuration'
p2155
S'lineconfiguration11'
p2156
ssS'line097098'
p2157
(dp2158
S'phases'
p2159
S'"ABCN"'
p2160
sS'from'
p2161
S'node097'
p2162
sS'name'
p2163
g2157
sS'to'
p2164
S'node098'
p2165
sS'length'
p2166
S'275'
p2167
sS'configuration'
p2168
S'lineconfiguration3'
p2169
ssS'line035040'
p2170
(dp2171
S'phases'
p2172
S'"ABCN"'
p2173
sS'from'
p2174
S'node035'
p2175
sS'name'
p2176
g2170
sS'to'
p2177
S'node040'
p2178
sS'length'
p2179
S'250'
p2180
sS'configuration'
p2181
S'lineconfiguration1'
p2182
ssS'line030250'
p2183
(dp2184
S'phases'
p2185
S'"ABCN"'
p2186
sS'from'
p2187
S'node030'
p2188
sS'name'
p2189
g2183
sS'to'
p2190
S'node250'
p2191
sS'length'
p2192
S'200'
p2193
sS'configuration'
p2194
S'lineconfiguration2'
p2195
ssS'line055056'
p2196
(dp2197
S'phases'
p2198
S'"ABCN"'
p2199
sS'from'
p2200
S'node055'
p2201
sS'name'
p2202
g2196
sS'to'
p2203
S'node056'
p2204
sS'length'
p2205
S'275'
p2206
sS'configuration'
p2207
S'lineconfiguration1'
p2208
ssS'line008013'
p2209
(dp2210
S'phases'
p2211
S'"ABCN"'
p2212
sS'from'
p2213
S'node008'
p2214
sS'name'
p2215
g2209
sS'to'
p2216
S'node013'
p2217
sS'length'
p2218
S'300'
p2219
sS'configuration'
p2220
S'lineconfiguration1'
p2221
ssS'line008012'
p2222
(dp2223
S'phases'
p2224
S'"BN"'
p2225
sS'from'
p2226
S'node008'
p2227
sS'name'
p2228
g2222
sS'to'
p2229
S'node012'
p2230
sS'length'
p2231
S'225'
p2232
sS'configuration'
p2233
S'lineconfiguration10'
p2234
ssS'line113114'
p2235
(dp2236
S'phases'
p2237
S'"AN"'
p2238
sS'from'
p2239
S'node113'
p2240
sS'name'
p2241
g2235
sS'to'
p2242
S'node114'
p2243
sS'length'
p2244
S'325'
p2245
sS'configuration'
p2246
S'lineconfiguration9'
p2247
ssS'line135035'
p2248
(dp2249
S'phases'
p2250
S'"ABCN"'
p2251
sS'from'
p2252
S'node135'
p2253
sS'name'
p2254
g2248
sS'to'
p2255
S'node035'
p2256
sS'length'
p2257
S'375'
p2258
sS'configuration'
p2259
S'lineconfiguration4'
p2260
ssS'line026031'
p2261
(dp2262
S'phases'
p2263
S'"CN"'
p2264
sS'from'
p2265
S'node026'
p2266
sS'name'
p2267
g2261
sS'to'
p2268
S'node031'
p2269
sS'length'
p2270
S'225'
p2271
sS'configuration'
p2272
S'lineconfiguration11'
p2273
ssS'line013034'
p2274
(dp2275
S'phases'
p2276
S'"CN"'
p2277
sS'from'
p2278
S'node013'
p2279
sS'name'
p2280
g2274
sS'to'
p2281
S'node034'
p2282
sS'length'
p2283
S'150'
p2284
sS'configuration'
p2285
S'lineconfiguration11'
p2286
ssS'line078080'
p2287
(dp2288
S'phases'
p2289
S'"ABCN"'
p2290
sS'from'
p2291
S'node078'
p2292
sS'name'
p2293
g2287
sS'to'
p2294
S'node080'
p2295
sS'length'
p2296
S'475'
p2297
sS'configuration'
p2298
S'lineconfiguration6'
p2299
ssS'line078086'
p2300
(dp2301
S'phases'
p2302
S'"ABCN"'
p2303
sS'from'
p2304
S'node078'
p2305
sS'name'
p2306
g2300
sS'to'
p2307
S'node086'
p2308
sS'length'
p2309
S'700'
p2310
sS'configuration'
p2311
S'lineconfiguration3'
p2312
ssS'line044047'
p2313
(dp2314
S'phases'
p2315
S'"ABCN"'
p2316
sS'from'
p2317
S'node044'
p2318
sS'name'
p2319
g2313
sS'to'
p2320
S'node047'
p2321
sS'length'
p2322
S'250'
p2323
sS'configuration'
p2324
S'lineconfiguration1'
p2325
ssS'line038039'
p2326
(dp2327
S'phases'
p2328
S'"BN"'
p2329
sS'from'
p2330
S'node038'
p2331
sS'name'
p2332
g2326
sS'to'
p2333
S'node039'
p2334
sS'length'
p2335
S'325'
p2336
sS'configuration'
p2337
S'lineconfiguration10'
p2338
ssS'line103104'
p2339
(dp2340
S'phases'
p2341
S'"CN"'
p2342
sS'from'
p2343
S'node103'
p2344
sS'name'
p2345
g2339
sS'to'
p2346
S'node104'
p2347
sS'length'
p2348
S'700'
p2349
sS'configuration'
p2350
S'lineconfiguration11'
p2351
sssS'regulator'
p2352
(dp2353
S'Reg4'
p2354
(dp2355
S'phases'
p2356
S'"ABCN"'
p2357
sS'from'
p2358
S'node160'
p2359
sS'name'
p2360
g2354
sS'to'
p2361
S'node067'
p2362
sS'sense_node'
p2363
S'node067'
p2364
sS'configuration'
p2365
S'regulator_configuration4'
p2366
ssS'Reg2'
p2367
(dp2368
S'phases'
p2369
S'"AN"'
p2370
sS'from'
p2371
S'node009'
p2372
sS'name'
p2373
g2367
sS'to'
p2374
S'node014'
p2375
sS'sense_node'
p2376
S'node014'
p2377
sS'configuration'
p2378
S'regulator_configuration2'
p2379
ssS'Reg3'
p2380
(dp2381
S'phases'
p2382
S'"ACN"'
p2383
sS'from'
p2384
S'node025'
p2385
sS'name'
p2386
g2380
sS'to'
p2387
S'node026'
p2388
sS'sense_node'
p2389
S'node026'
p2390
sS'configuration'
p2391
S'regulator_configuration3'
p2392
ssS'Reg1'
p2393
(dp2394
S'phases'
p2395
S'"ABCN"'
p2396
sS'from'
p2397
S'node150'
p2398
sS'name'
p2399
g2393
sS'to'
p2400
S'node149'
p2401
sS'sense_node'
p2402
S'node013'
p2403
sS'configuration'
p2404
S'regulator_configuration1'
p2405
sssS'line_spacing'
p2406
(dp2407
S'linespacing6'
p2408
(dp2409
S'distance_BC'
p2410
S'4.5'
p2411
sS'name'
p2412
g2408
sS'distance_CN'
p2413
S'4.272002'
p2414
sS'distance_AN'
p2415
S'5.656854'
p2416
sS'distance_AB'
p2417
S'7.0'
p2418
sS'distance_BN'
p2419
S'5.0'
p2420
sS'distance_AC'
p2421
S'2.5'
p2422
ssS'linespacing9'
p2423
(dp2424
S'distance_AN'
p2425
S'4.0311'
p2426
sS'name'
p2427
g2423
ssS'linespacing8'
p2428
(dp2429
S'distance_AN'
p2430
S'5.656854'
p2431
sS'name'
p2432
g2428
sS'distance_AB'
p2433
S'7.0'
p2434
sS'distance_BN'
p2435
S'5.0'
p2436
ssS'linespacing5'
p2437
(dp2438
S'distance_BC'
p2439
S'7.0'
p2440
sS'name'
p2441
g2437
sS'distance_CN'
p2442
S'5.0'
p2443
sS'distance_AN'
p2444
S'4.272002'
p2445
sS'distance_AB'
p2446
S'2.5'
p2447
sS'distance_BN'
p2448
S'5.656854'
p2449
sS'distance_AC'
p2450
S'4.5'
p2451
ssS'linespacing3'
p2452
(dp2453
S'distance_BC'
p2454
S'2.5'
p2455
sS'name'
p2456
g2452
sS'distance_CN'
p2457
S'4.272002'
p2458
sS'distance_AN'
p2459
S'5.0'
p2460
sS'distance_AB'
p2461
S'7.0'
p2462
sS'distance_BN'
p2463
S'5.656854'
p2464
sS'distance_AC'
p2465
S'4.5'
p2466
ssS'linespacing2'
p2467
(dp2468
S'distance_BC'
p2469
S'7.0'
p2470
sS'name'
p2471
g2467
sS'distance_CN'
p2472
S'5.658654'
p2473
sS'distance_AN'
p2474
S'4.272002'
p2475
sS'distance_AB'
p2476
S'4.5'
p2477
sS'distance_BN'
p2478
S'5.0'
p2479
sS'distance_AC'
p2480
S'2.5'
p2481
ssS'linespacing1'
p2482
(dp2483
S'distance_BC'
p2484
S'4.5'
p2485
sS'name'
p2486
g2482
sS'distance_CN'
p2487
S'5.0'
p2488
sS'distance_AN'
p2489
S'5.656854'
p2490
sS'distance_AB'
p2491
S'2.5'
p2492
sS'distance_BN'
p2493
S'4.272002'
p2494
sS'distance_AC'
p2495
S'7.0'
p2496
ssS'linespacing4'
p2497
(dp2498
S'distance_BC'
p2499
S'2.5'
p2500
sS'name'
p2501
g2497
sS'distance_CN'
p2502
S'5.656854'
p2503
sS'distance_AN'
p2504
S'5.0'
p2505
sS'distance_AB'
p2506
S'4.5'
p2507
sS'distance_BN'
p2508
S'4.272002'
p2509
sS'distance_AC'
p2510
S'7.0'
p2511
ssS'linespacing7'
p2512
(dp2513
S'distance_CN'
p2514
S'5.0'
p2515
sS'distance_AN'
p2516
S'5.656854'
p2517
sS'name'
p2518
g2512
sS'distance_AC'
p2519
S'7.0'
p2520
ssS'linespacing12'
p2521
(dp2522
S'distance_BC'
p2523
S'0.5'
p2524
sS'name'
p2525
g2521
sS'distance_AB'
p2526
S'0.5'
p2527
sS'distance_AC'
p2528
S'1.0'
p2529
ssS'linespacing11'
p2530
(dp2531
S'distance_CN'
p2532
S'4.0311'
p2533
sS'name'
p2534
g2530
ssS'linespacing10'
p2535
(dp2536
S'name'
p2537
g2535
sS'distance_BN'
p2538
S'4.0311'
p2539
sssS'transformer_configuration'
p2540
(dp2541
S'XFMRconfiguration2'
p2542
(dp2543
S'power_rating'
p2544
S'150'
p2545
sS'primary_voltage'
p2546
S'4160'
p2547
sS'secondary_voltage'
p2548
S'480'
p2549
sS'resistance'
p2550
S'0.0127'
p2551
sS'connect_type'
p2552
S'DELTA_DELTA'
p2553
sS'reactance'
p2554
S'0.0272'
p2555
sS'name'
p2556
g2542
ssS'XFMRconfiguration1'
p2557
(dp2558
S'power_rating'
p2559
S'5000'
p2560
sS'primary_voltage'
p2561
S'115000'
p2562
sS'secondary_voltage'
p2563
S'4160'
p2564
sS'resistance'
p2565
S'0.01'
p2566
sS'connect_type'
p2567
S'DELTA_GWYE'
p2568
sS'reactance'
p2569
S'0.08'
p2570
sS'name'
p2571
g2557
sssS'node'
p2572
(dp2573
S'node091'
p2574
(dp2575
S'phases'
p2576
S'"ABCN"'
p2577
sS'nominal_voltage'
p2578
S'2401.8'
p2579
sS'name'
p2580
g2574
ssS'node093'
p2581
(dp2582
S'phases'
p2583
S'"ABCN"'
p2584
sS'nominal_voltage'
p2585
S'2401.8'
p2586
sS'name'
p2587
g2581
ssS'node097'
p2588
(dp2589
S'phases'
p2590
S'"ABCN"'
p2591
sS'nominal_voltage'
p2592
S'2401.8'
p2593
sS'name'
p2594
g2588
ssS'node197'
p2595
(dp2596
S'phases'
p2597
S'"ABCN"'
p2598
sS'nominal_voltage'
p2599
S'2401.8'
p2600
sS'name'
p2601
g2595
ssS'node250'
p2602
(dp2603
S'phases'
p2604
S'"ABCN"'
p2605
sS'nominal_voltage'
p2606
S'2401.8'
p2607
sS'name'
p2608
g2602
ssS'node018'
p2609
(dp2610
S'phases'
p2611
S'"ABCN"'
p2612
sS'nominal_voltage'
p2613
S'2401.8'
p2614
sS'name'
p2615
g2609
ssS'node036'
p2616
(dp2617
S'phases'
p2618
S'"ABN"'
p2619
sS'nominal_voltage'
p2620
S'2401.8'
p2621
sS'name'
p2622
g2616
ssS'node110'
p2623
(dp2624
S'phases'
p2625
S'"AN"'
p2626
sS'nominal_voltage'
p2627
S'2401.8'
p2628
sS'name'
p2629
g2623
ssS'node044'
p2630
(dp2631
S'phases'
p2632
S'"ABCN"'
p2633
sS'nominal_voltage'
p2634
S'2401.8'
p2635
sS'name'
p2636
g2630
ssS'node054'
p2637
(dp2638
S'phases'
p2639
S'"ABCN"'
p2640
sS'nominal_voltage'
p2641
S'2401.8'
p2642
sS'name'
p2643
g2637
ssS'node150'
p2644
(dp2645
S'phases'
p2646
S'"ABCN"'
p2647
sS'nominal_voltage'
p2648
S'2401.8'
p2649
sS'name'
p2650
g2644
sS'bustype'
p2651
S'SWING'
p2652
ssS'node057'
p2653
(dp2654
S'phases'
p2655
S'"ABCN"'
p2656
sS'nominal_voltage'
p2657
S'2401.8'
p2658
sS'name'
p2659
g2653
ssS'node078'
p2660
(dp2661
S'phases'
p2662
S'"ABCN"'
p2663
sS'nominal_voltage'
p2664
S'2401.8'
p2665
sS'name'
p2666
g2660
ssS'node013'
p2667
(dp2668
S'phases'
p2669
S'"ABCN"'
p2670
sS'nominal_voltage'
p2671
S'2401.8'
p2672
sS'name'
p2673
g2667
ssS'node072'
p2674
(dp2675
S'phases'
p2676
S'"ABCN"'
p2677
sS'nominal_voltage'
p2678
S'2401.8'
p2679
sS'name'
p2680
g2674
ssS'node015'
p2681
(dp2682
S'phases'
p2683
S'"CN"'
p2684
sS'nominal_voltage'
p2685
S'2401.8'
p2686
sS'name'
p2687
g2681
ssS'node135'
p2688
(dp2689
S'phases'
p2690
S'"ABCN"'
p2691
sS'nominal_voltage'
p2692
S'2401.8'
p2693
sS'name'
p2694
g2688
ssS'node152'
p2695
(dp2696
S'phases'
p2697
S'"ABCN"'
p2698
sS'nominal_voltage'
p2699
S'2401.8'
p2700
sS'name'
p2701
g2695
ssS'node025'
p2702
(dp2703
S'phases'
p2704
S'"ABCN"'
p2705
sS'nominal_voltage'
p2706
S'2401.8'
p2707
sS'name'
p2708
g2702
ssS'node151'
p2709
(dp2710
S'phases'
p2711
S'"ABCN"'
p2712
sS'nominal_voltage'
p2713
S'2401.8'
p2714
sS'name'
p2715
g2709
ssS'node040'
p2716
(dp2717
S'phases'
p2718
S'"ABCN"'
p2719
sS'nominal_voltage'
p2720
S'2401.8'
p2721
sS'name'
p2722
g2716
ssS'node300'
p2723
(dp2724
S'phases'
p2725
S'"ABCN"'
p2726
sS'nominal_voltage'
p2727
S'2401.8'
p2728
sS'name'
p2729
g2723
ssS'node081'
p2730
(dp2731
S'phases'
p2732
S'"ABCN"'
p2733
sS'nominal_voltage'
p2734
S'2401.8'
p2735
sS'name'
p2736
g2730
ssS'node026'
p2737
(dp2738
S'phases'
p2739
S'"ACN"'
p2740
sS'nominal_voltage'
p2741
S'2401.8'
p2742
sS'name'
p2743
g2737
ssS'node089'
p2744
(dp2745
S'phases'
p2746
S'"ABCN"'
p2747
sS'nominal_voltage'
p2748
S'2401.8'
p2749
sS'name'
p2750
g2744
ssS'node450'
p2751
(dp2752
S'phases'
p2753
S'"ABCN"'
p2754
sS'nominal_voltage'
p2755
S'2401.8'
p2756
sS'name'
p2757
g2751
ssS'node027'
p2758
(dp2759
S'phases'
p2760
S'"ACN"'
p2761
sS'nominal_voltage'
p2762
S'2401.8'
p2763
sS'name'
p2764
g2758
ssS'node101'
p2765
(dp2766
S'phases'
p2767
S'"ABCN"'
p2768
sS'nominal_voltage'
p2769
S'2401.8'
p2770
sS'name'
p2771
g2765
ssS'node021'
p2772
(dp2773
S'phases'
p2774
S'"ABCN"'
p2775
sS'nominal_voltage'
p2776
S'2401.8'
p2777
sS'name'
p2778
g2772
ssS'node023'
p2779
(dp2780
S'phases'
p2781
S'"ABCN"'
p2782
sS'nominal_voltage'
p2783
S'2401.8'
p2784
sS'name'
p2785
g2779
ssS'node105'
p2786
(dp2787
S'phases'
p2788
S'"ABCN"'
p2789
sS'nominal_voltage'
p2790
S'2401.8'
p2791
sS'name'
p2792
g2786
ssS'node014'
p2793
(dp2794
S'phases'
p2795
S'"AN"'
p2796
sS'nominal_voltage'
p2797
S'2401.8'
p2798
sS'name'
p2799
g2793
ssS'node108'
p2800
(dp2801
S'phases'
p2802
S'"ABCN"'
p2803
sS'nominal_voltage'
p2804
S'2401.8'
p2805
sS'name'
p2806
g2800
ssS'node061'
p2807
(dp2808
S'phases'
p2809
S'"ABCN"'
p2810
sS'nominal_voltage'
p2811
S'2401.8'
p2812
sS'name'
p2813
g2807
ssS'node008'
p2814
(dp2815
S'phases'
p2816
S'"ABCN"'
p2817
sS'nominal_voltage'
p2818
S'2401.8'
p2819
sS'name'
p2820
g2814
ssS'node160'
p2821
(dp2822
S'phases'
p2823
S'"ABCN"'
p2824
sS'nominal_voltage'
p2825
S'2401.8'
p2826
sS'name'
p2827
g2821
ssS'node067'
p2828
(dp2829
S'phases'
p2830
S'"ABCN"'
p2831
sS'nominal_voltage'
p2832
S'2401.8'
p2833
sS'name'
p2834
g2828
ssS'node149'
p2835
(dp2836
S'phases'
p2837
S'"ABCN"'
p2838
sS'nominal_voltage'
p2839
S'2401.8'
p2840
sS'name'
p2841
g2835
ssS'node003'
p2842
(dp2843
S'phases'
p2844
S'"CN"'
p2845
sS'nominal_voltage'
p2846
S'2401.8'
p2847
sS'name'
p2848
g2842
ssS'node610'
p2849
(dp2850
S'phases'
p2851
S'"ABCN"'
p2852
sS'nominal_voltage'
p2853
S'277.1'
p2854
sS'name'
p2855
g2849
sssS'underground_line_conductor'
p2856
(dp2857
S'conductor5'
p2858
(dp2859
S'name'
p2860
g2858
sS'conductor_resistance'
p2861
S'0.97'
p2862
sS'neutral_gmr'
p2863
S'0.00208'
p2864
sS'outer_diameter'
p2865
S'1.06'
p2866
sS'neutral_strands'
p2867
S'6'
p2868
sS'neutral_resistance'
p2869
S'14.8722'
p2870
sS'neutral_diameter'
p2871
S'0.0641'
p2872
sS'conductor_diameter'
p2873
S'0.93'
p2874
sS'conductor_gmr'
p2875
S'0.0111'
p2876
sssS'capacitor'
p2877
(dp2878
S'capnode83'
p2879
(dp2880
S'control'
p2881
S'VOLT'
p2882
sS'phases'
p2883
S'ABCN'
p2884
sS'name'
p2885
g2879
sS'parent'
p2886
S'node083'
p2887
sS'capacitor_C'
p2888
S'0.20 MVAr'
p2889
sS'capacitor_B'
p2890
S'0.20 MVAr'
p2891
sS'pt_phase'
p2892
S'ABCN'
p2893
sS'capacitor_A'
p2894
S'0.20 MVAr'
p2895
sS'nominal_voltage'
p2896
S'2401.8'
p2897
sS'voltage_set_low'
p2898
S'2281.7'
p2899
sS'switchC'
p2900
S'CLOSED'
p2901
sS'control_level'
p2902
S'INDIVIDUAL'
p2903
sS'switchA'
p2904
S'CLOSED'
p2905
sS'switchB'
p2906
S'CLOSED'
p2907
sS'phases_connected'
p2908
S'ABCN'
p2909
sS'voltage_set_high'
p2910
S'2521.9'
p2911
ssS'capnode92'
p2912
(dp2913
S'control'
p2914
S'VOLT'
p2915
sS'phases'
p2916
S'CN'
p2917
sS'name'
p2918
g2912
sS'parent'
p2919
S'node092'
p2920
sS'capacitor_C'
p2921
S'0.05 MVAr'
p2922
sS'switchB'
p2923
S'CLOSED'
p2924
sS'pt_phase'
p2925
S'CN'
p2926
sS'nominal_voltage'
p2927
S'2401.8'
p2928
sS'voltage_set_low'
p2929
S'2281.7'
p2930
sS'switchC'
p2931
S'CLOSED'
p2932
sS'control_level'
p2933
S'INDIVIDUAL'
p2934
sS'switchA'
p2935
S'CLOSED'
p2936
sS'phases_connected'
p2937
S'ABCN'
p2938
sS'voltage_set_high'
p2939
S'2521.9'
p2940
ssS'capnode88'
p2941
(dp2942
S'control'
p2943
S'VOLT'
p2944
sS'phases'
p2945
S'AN'
p2946
sS'name'
p2947
g2941
sS'parent'
p2948
S'node088'
p2949
sS'switchB'
p2950
S'CLOSED'
p2951
sS'pt_phase'
p2952
S'AN'
p2953
sS'capacitor_A'
p2954
S'0.05 MVAr'
p2955
sS'nominal_voltage'
p2956
S'2401.8'
p2957
sS'voltage_set_low'
p2958
S'2281.7'
p2959
sS'switchC'
p2960
S'CLOSED'
p2961
sS'control_level'
p2962
S'INDIVIDUAL'
p2963
sS'switchA'
p2964
S'CLOSED'
p2965
sS'phases_connected'
p2966
S'ABCN'
p2967
sS'voltage_set_high'
p2968
S'2521.9'
p2969
ssS'capnode90'
p2970
(dp2971
S'control'
p2972
S'VOLT'
p2973
sS'phases'
p2974
S'BN'
p2975
sS'name'
p2976
g2970
sS'parent'
p2977
S'node090'
p2978
sS'capacitor_B'
p2979
S'0.05 MVAr'
p2980
sS'pt_phase'
p2981
S'BN'
p2982
sS'nominal_voltage'
p2983
S'2401.8'
p2984
sS'voltage_set_low'
p2985
S'2281.7'
p2986
sS'switchC'
p2987
S'CLOSED'
p2988
sS'control_level'
p2989
S'INDIVIDUAL'
p2990
sS'switchA'
p2991
S'CLOSED'
p2992
sS'switchB'
p2993
S'CLOSED'
p2994
sS'phases_connected'
p2995
S'ABCN'
p2996
sS'voltage_set_high'
p2997
S'2521.9'
p2998
sssS'line_configuration'
p2999
(dp3000
S'lineconfiguration2'
p3001
(dp3002
S'name'
p3003
g3001
sS'spacing'
p3004
S'linespacing2'
p3005
sS'conductor_N'
p3006
S'conductor3'
p3007
sS'conductor_A'
p3008
S'conductor1'
p3009
sS'conductor_C'
p3010
S'conductor1'
p3011
sS'conductor_B'
p3012
S'conductor1'
p3013
ssS'lineconfiguration8'
p3014
(dp3015
S'name'
p3016
g3014
sS'spacing'
p3017
S'linespacing8'
p3018
sS'conductor_N'
p3019
S'conductor3'
p3020
sS'conductor_A'
p3021
S'conductor1'
p3022
sS'conductor_C'
p3023
S'conductor1'
p3024
sS'conductor_B'
p3025
S'conductor1'
p3026
ssS'lineconfiguration9'
p3027
(dp3028
S'name'
p3029
g3027
sS'spacing'
p3030
S'linespacing9'
p3031
sS'conductor_N'
p3032
S'conductor4'
p3033
sS'conductor_A'
p3034
S'conductor2'
p3035
sS'conductor_C'
p3036
S'conductor2'
p3037
sS'conductor_B'
p3038
S'conductor2'
p3039
ssS'lineconfiguration3'
p3040
(dp3041
S'name'
p3042
g3040
sS'spacing'
p3043
S'linespacing3'
p3044
sS'conductor_N'
p3045
S'conductor3'
p3046
sS'conductor_A'
p3047
S'conductor1'
p3048
sS'conductor_C'
p3049
S'conductor1'
p3050
sS'conductor_B'
p3051
S'conductor1'
p3052
ssS'lineconfiguration10'
p3053
(dp3054
S'name'
p3055
g3053
sS'spacing'
p3056
S'linespacing10'
p3057
sS'conductor_N'
p3058
S'conductor4'
p3059
sS'conductor_A'
p3060
S'conductor2'
p3061
sS'conductor_C'
p3062
S'conductor2'
p3063
sS'conductor_B'
p3064
S'conductor2'
p3065
ssS'lineconfiguration11'
p3066
(dp3067
S'name'
p3068
g3066
sS'spacing'
p3069
S'linespacing11'
p3070
sS'conductor_N'
p3071
S'conductor4'
p3072
sS'conductor_A'
p3073
S'conductor2'
p3074
sS'conductor_C'
p3075
S'conductor2'
p3076
sS'conductor_B'
p3077
S'conductor2'
p3078
ssS'lineconfiguration12'
p3079
(dp3080
S'spacing'
p3081
S'linespacing12'
p3082
sS'conductor_A'
p3083
S'conductor5'
p3084
sS'name'
p3085
g3079
sS'conductor_C'
p3086
S'conductor5'
p3087
sS'conductor_B'
p3088
S'conductor5'
p3089
ssS'lineconfiguration1'
p3090
(dp3091
S'name'
p3092
g3090
sS'spacing'
p3093
S'linespacing1'
p3094
sS'conductor_N'
p3095
S'conductor3'
p3096
sS'conductor_A'
p3097
S'conductor1'
p3098
sS'conductor_C'
p3099
S'conductor1'
p3100
sS'conductor_B'
p3101
S'conductor1'
p3102
ssS'lineconfiguration6'
p3103
(dp3104
S'name'
p3105
g3103
sS'spacing'
p3106
S'linespacing6'
p3107
sS'conductor_N'
p3108
S'conductor3'
p3109
sS'conductor_A'
p3110
S'conductor1'
p3111
sS'conductor_C'
p3112
S'conductor1'
p3113
sS'conductor_B'
p3114
S'conductor1'
p3115
ssS'lineconfiguration7'
p3116
(dp3117
S'name'
p3118
g3116
sS'spacing'
p3119
S'linespacing7'
p3120
sS'conductor_N'
p3121
S'conductor3'
p3122
sS'conductor_A'
p3123
S'conductor1'
p3124
sS'conductor_C'
p3125
S'conductor1'
p3126
sS'conductor_B'
p3127
S'conductor1'
p3128
ssS'lineconfiguration4'
p3129
(dp3130
S'name'
p3131
g3129
sS'spacing'
p3132
S'linespacing4'
p3133
sS'conductor_N'
p3134
S'conductor3'
p3135
sS'conductor_A'
p3136
S'conductor1'
p3137
sS'conductor_C'
p3138
S'conductor1'
p3139
sS'conductor_B'
p3140
S'conductor1'
p3141
ssS'lineconfiguration5'
p3142
(dp3143
S'name'
p3144
g3142
sS'spacing'
p3145
S'linespacing5'
p3146
sS'conductor_N'
p3147
S'conductor3'
p3148
sS'conductor_A'
p3149
S'conductor1'
p3150
sS'conductor_C'
p3151
S'conductor1'
p3152
sS'conductor_B'
p3153
S'conductor1'
p3154
sssS'overhead_line_conductor'
p3155
(dp3156
S'conductor4'
p3157
(dp3158
S'resistance'
p3159
S'1.12'
p3160
sS'name'
p3161
g3157
sS'geometric_mean_radius'
p3162
S'0.00446'
p3163
ssS'conductor3'
p3164
(dp3165
S'resistance'
p3166
S'0.592'
p3167
sS'name'
p3168
g3164
sS'geometric_mean_radius'
p3169
S'0.00814'
p3170
ssS'conductor2'
p3171
(dp3172
S'resistance'
p3173
S'1.12'
p3174
sS'name'
p3175
g3171
sS'geometric_mean_radius'
p3176
S'0.0046'
p3177
ssS'conductor1'
p3178
(dp3179
S'resistance'
p3180
S'0.306'
p3181
sS'name'
p3182
g3178
sS'geometric_mean_radius'
p3183
S'0.0244'
p3184
sssS'regulator_configuration'
p3185
(dp3186
S'regulator_configuration4'
p3187
(dp3188
S'Control'
p3189
S'REMOTE_NODE'
p3190
sS'raise_taps'
p3191
S'16'
p3192
sS'name'
p3193
g3187
sS'band_center'
p3194
S'2401.8'
p3195
sS'connect_type'
p3196
S'WYE_WYE'
p3197
sS'regulation'
p3198
S'0.10'
p3199
sS'band_width'
p3200
S'21.0'
p3201
sS'lower_taps'
p3202
S'16'
p3203
ssS'regulator_configuration2'
p3204
(dp3205
S'Control'
p3206
S'REMOTE_NODE'
p3207
sS'raise_taps'
p3208
S'16'
p3209
sS'name'
p3210
g3204
sS'band_center'
p3211
S'2401.8'
p3212
sS'time_delay'
p3213
S'30.0'
p3214
sS'connect_type'
p3215
S'WYE_WYE'
p3216
sS'regulation'
p3217
S'0.10'
p3218
sS'lower_taps'
p3219
S'16'
p3220
sS'band_width'
p3221
S'21.0'
p3222
ssS'regulator_configuration3'
p3223
(dp3224
S'Control'
p3225
S'REMOTE_NODE'
p3226
sS'raise_taps'
p3227
S'16'
p3228
sS'name'
p3229
g3223
sS'band_center'
p3230
S'2420'
p3231
sS'time_delay'
p3232
S'30.0'
p3233
sS'connect_type'
p3234
S'WYE_WYE'
p3235
sS'regulation'
p3236
S'0.10'
p3237
sS'lower_taps'
p3238
S'16'
p3239
sS'band_width'
p3240
S'21.0'
p3241
ssS'regulator_configuration1'
p3242
(dp3243
S'Control'
p3244
S'REMOTE_NODE'
p3245
sS'raise_taps'
p3246
S'16'
p3247
sS'name'
p3248
g3242
sS'band_center'
p3249
S'2401.8'
p3250
sS'connect_type'
p3251
S'WYE_WYE'
p3252
sS'regulation'
p3253
S'0.10'
p3254
sS'band_width'
p3255
S'21.0'
p3256
sS'lower_taps'
p3257
S'16'
p3258
sss.